; ModuleID = '16/652.c'
source_filename = "16/652.c"
target datalayout = "e-m:e-p270:32:32-p271:32:32-p272:64:64-i64:64-f80:128-n8:16:32:64-S128"
target triple = "x86_64-pc-linux-gnu"

@.str = private unnamed_addr constant [3 x i8] c"%d\00", align 1
@.str.1 = private unnamed_addr constant [2 x i8] c"0\00", align 1

; Function Attrs: noinline nounwind uwtable
define dso_local i32 @main() #0 {
  %1 = alloca i32, align 4
  %2 = alloca i32, align 4
  %3 = alloca [5 x i32], align 16
  %4 = alloca i32, align 4
  %5 = alloca i32, align 4
  %6 = alloca i32, align 4
  %7 = alloca i32, align 4
  %8 = alloca i32, align 4
  store i32 0, i32* %1, align 4
  store i32 0, i32* %7, align 4
  %9 = call i32 (i8*, ...) @__isoc99_scanf(i8* getelementptr inbounds ([3 x i8], [3 x i8]* @.str, i64 0, i64 0), i32* %2)
  %10 = load i32, i32* %2, align 4
  %11 = icmp eq i32 %10, 0
  br i1 %11, label %12, label %14

12:                                               ; preds = %0
  %13 = call i32 (i8*, ...) @printf(i8* getelementptr inbounds ([2 x i8], [2 x i8]* @.str.1, i64 0, i64 0))
  br label %14

14:                                               ; preds = %12, %0
  store i32 1, i32* %6, align 4
  store i32 0, i32* %4, align 4
  br label %15

15:                                               ; preds = %43, %14
  %16 = load i32, i32* %4, align 4
  %17 = icmp slt i32 %16, 5
  br i1 %17, label %18, label %46

18:                                               ; preds = %15
  %19 = load i32, i32* %4, align 4
  %20 = add nsw i32 %19, 1
  %21 = sitofp i32 %20 to double
  %22 = call double @pow(double 1.000000e+01, double %21) #3
  %23 = fadd double %22, 5.000000e-01
  %24 = fptosi double %23 to i32
  store i32 %24, i32* %6, align 4
  %25 = load i32, i32* %2, align 4
  %26 = load i32, i32* %6, align 4
  %27 = srem i32 %25, %26
  %28 = mul nsw i32 10, %27
  %29 = load i32, i32* %6, align 4
  %30 = sdiv i32 %28, %29
  %31 = load i32, i32* %4, align 4
  %32 = sext i32 %31 to i64
  %33 = getelementptr inbounds [5 x i32], [5 x i32]* %3, i64 0, i64 %32
  store i32 %30, i32* %33, align 4
  %34 = load i32, i32* %2, align 4
  %35 = load i32, i32* %4, align 4
  %36 = sext i32 %35 to i64
  %37 = getelementptr inbounds [5 x i32], [5 x i32]* %3, i64 0, i64 %36
  %38 = load i32, i32* %37, align 4
  %39 = load i32, i32* %6, align 4
  %40 = mul nsw i32 %38, %39
  %41 = sdiv i32 %40, 10
  %42 = sub nsw i32 %34, %41
  store i32 %42, i32* %2, align 4
  br label %43

43:                                               ; preds = %18
  %44 = load i32, i32* %4, align 4
  %45 = add nsw i32 %44, 1
  store i32 %45, i32* %4, align 4
  br label %15

46:                                               ; preds = %15
  store i32 4, i32* %4, align 4
  br label %47

47:                                               ; preds = %53, %46
  %48 = load i32, i32* %4, align 4
  %49 = sext i32 %48 to i64
  %50 = getelementptr inbounds [5 x i32], [5 x i32]* %3, i64 0, i64 %49
  %51 = load i32, i32* %50, align 4
  %52 = icmp eq i32 %51, 0
  br i1 %52, label %53, label %56

53:                                               ; preds = %47
  %54 = load i32, i32* %4, align 4
  %55 = sub nsw i32 %54, 1
  store i32 %55, i32* %4, align 4
  br label %47

56:                                               ; preds = %47
  store i32 0, i32* %5, align 4
  br label %57

57:                                               ; preds = %67, %56
  %58 = load i32, i32* %5, align 4
  %59 = load i32, i32* %4, align 4
  %60 = icmp sle i32 %58, %59
  br i1 %60, label %61, label %70

61:                                               ; preds = %57
  %62 = load i32, i32* %5, align 4
  %63 = sext i32 %62 to i64
  %64 = getelementptr inbounds [5 x i32], [5 x i32]* %3, i64 0, i64 %63
  %65 = load i32, i32* %64, align 4
  %66 = call i32 (i8*, ...) @printf(i8* getelementptr inbounds ([3 x i8], [3 x i8]* @.str, i64 0, i64 0), i32 %65)
  br label %67

67:                                               ; preds = %61
  %68 = load i32, i32* %5, align 4
  %69 = add nsw i32 %68, 1
  store i32 %69, i32* %5, align 4
  br label %57

70:                                               ; preds = %57
  ret i32 0
}

declare dso_local i32 @__isoc99_scanf(i8*, ...) #1

declare dso_local i32 @printf(i8*, ...) #1

; Function Attrs: nounwind
declare dso_local double @pow(double, double) #2


!llvm.module.flags = !{!0}
!llvm.ident = !{!1}

!0 = !{i32 1, !"wchar_size", i32 4}
!1 = !{!"clang version 10.0.0-4ubuntu1 "}
